target datalayout = "e-m:e-p270:32:32-p271:32:32-p272:64:64-i64:64-i128:128-f80:128-n8:16:32:64-S128"
target triple = "x86_64-pc-linux-gnu"

%"class.std::__cxx11::basic_string" = type { %"struct.std::__cxx11::basic_string<char>::_Alloc_hider", i64, %union.anon }
%"struct.std::__cxx11::basic_string<char>::_Alloc_hider" = type { ptr }
%union.anon = type { i64, [8 x i8] }
%class.Variable = type { ptr, %"class.std::vector.18", %"class.std::__cxx11::basic_string", ptr, ptr, i8, i8, i8, i8, i8, i8, ptr, i8, %class.CVQualifiers }
%"class.std::vector.18" = type { %"struct.std::_Vector_base.19" }
%"struct.std::_Vector_base.19" = type { %"struct.std::_Vector_base<Variable *, std::allocator<Variable *>>::_Vector_impl" }
%"struct.std::_Vector_base<Variable *, std::allocator<Variable *>>::_Vector_impl" = type { %"struct.std::_Vector_base<Variable *, std::allocator<Variable *>>::_Vector_impl_data" }
%"struct.std::_Vector_base<Variable *, std::allocator<Variable *>>::_Vector_impl_data" = type { ptr, ptr, ptr }
%class.CVQualifiers = type { ptr, i8, i8, %"class.std::vector.23", %"class.std::vector.23" }
%"class.std::vector.23" = type { %"struct.std::_Bvector_base" }
%"struct.std::_Bvector_base" = type { %"struct.std::_Bvector_base<std::allocator<bool>>::_Bvector_impl" }
%"struct.std::_Bvector_base<std::allocator<bool>>::_Bvector_impl" = type { %"struct.std::_Bvector_base<std::allocator<bool>>::_Bvector_impl_data" }
%"struct.std::_Bvector_base<std::allocator<bool>>::_Bvector_impl_data" = type { %"struct.std::_Bit_iterator", %"struct.std::_Bit_iterator", ptr }
%"struct.std::_Bit_iterator" = type { %"struct.std::_Bit_iterator_base.base", [4 x i8] }
%"struct.std::_Bit_iterator_base.base" = type <{ ptr, i32 }>
%class.Type = type { i32, ptr, i32, %"class.std::vector.28", %"class.std::vector.33", i32, i8, i8, i8, i8, i8, %"class.std::vector.38", %"class.std::vector.43" }
%"class.std::vector.28" = type { %"struct.std::_Vector_base.29" }
%"struct.std::_Vector_base.29" = type { %"struct.std::_Vector_base<unsigned int, std::allocator<unsigned int>>::_Vector_impl" }
%"struct.std::_Vector_base<unsigned int, std::allocator<unsigned int>>::_Vector_impl" = type { %"struct.std::_Vector_base<unsigned int, std::allocator<unsigned int>>::_Vector_impl_data" }
%"struct.std::_Vector_base<unsigned int, std::allocator<unsigned int>>::_Vector_impl_data" = type { ptr, ptr, ptr }
%"class.std::vector.33" = type { %"struct.std::_Vector_base.34" }
%"struct.std::_Vector_base.34" = type { %"struct.std::_Vector_base<const Type *, std::allocator<const Type *>>::_Vector_impl" }
%"struct.std::_Vector_base<const Type *, std::allocator<const Type *>>::_Vector_impl" = type { %"struct.std::_Vector_base<const Type *, std::allocator<const Type *>>::_Vector_impl_data" }
%"struct.std::_Vector_base<const Type *, std::allocator<const Type *>>::_Vector_impl_data" = type { ptr, ptr, ptr }
%"class.std::vector.38" = type { %"struct.std::_Vector_base.39" }
%"struct.std::_Vector_base.39" = type { %"struct.std::_Vector_base<CVQualifiers, std::allocator<CVQualifiers>>::_Vector_impl" }
%"struct.std::_Vector_base<CVQualifiers, std::allocator<CVQualifiers>>::_Vector_impl" = type { %"struct.std::_Vector_base<CVQualifiers, std::allocator<CVQualifiers>>::_Vector_impl_data" }
%"struct.std::_Vector_base<CVQualifiers, std::allocator<CVQualifiers>>::_Vector_impl_data" = type { ptr, ptr, ptr }
%"class.std::vector.43" = type { %"struct.std::_Vector_base.44" }
%"struct.std::_Vector_base.44" = type { %"struct.std::_Vector_base<int, std::allocator<int>>::_Vector_impl" }
%"struct.std::_Vector_base<int, std::allocator<int>>::_Vector_impl" = type { %"struct.std::_Vector_base<int, std::allocator<int>>::_Vector_impl_data" }
%"struct.std::_Vector_base<int, std::allocator<int>>::_Vector_impl_data" = type { ptr, ptr, ptr }

@_ZN5Error8r_error_E = external global i32, align 4

; Function Attrs: mustprogress nounwind uwtable
define linkonce_odr dso_local noundef zeroext i1 @_ZNK4Type12is_aggregateEv(ptr noundef nonnull align 8 dereferenceable(136) %0) #4 comdat align 2 {
  %2 = alloca ptr, align 8
  store ptr %0, ptr %2, align 8, !tbaa !123
  %3 = load ptr, ptr %2, align 8
  %4 = getelementptr inbounds nuw %class.Type, ptr %3, i32 0, i32 0
  %5 = load i32, ptr %4, align 8, !tbaa !97
  %6 = icmp eq i32 %5, 3
  br i1 %6, label %11, label %7

7:                                                ; preds = %1
  %8 = getelementptr inbounds nuw %class.Type, ptr %3, i32 0, i32 0
  %9 = load i32, ptr %8, align 8, !tbaa !97
  %10 = icmp eq i32 %9, 2
  br label %11

11:                                               ; preds = %7, %1
  %12 = phi i1 [ true, %1 ], [ %10, %7 ]
  ret i1 %12
}

; Function Attrs: mustprogress nounwind uwtable
define linkonce_odr dso_local noundef i32 @_ZN5Error9get_errorEv() #4 comdat align 2 {
  %1 = load i32, ptr @_ZN5Error8r_error_E, align 4, !tbaa !74
  ret i32 %1
}

; Function Attrs: mustprogress uwtable
define dso_local noundef ptr @_ZN8Variable14CreateVariableERKNSt7__cxx1112basic_stringIcSt11char_traitsIcESaIcEEEPK4TypeRKSt6vectorIbSaIbEESF_bbbbPKS_(ptr noundef nonnull align 8 dereferenceable(32) %0, ptr noundef %1, ptr noundef nonnull align 8 dereferenceable(40) %2, ptr noundef nonnull align 8 dereferenceable(40) %3, i1 noundef zeroext %4, i1 noundef zeroext %5, i1 noundef zeroext %6, i1 noundef zeroext %7, ptr noundef %8) #6 align 2 personality ptr @__gxx_personality_v0 {
  %10 = alloca ptr, align 8
  %11 = alloca ptr, align 8
  %12 = alloca ptr, align 8
  %13 = alloca ptr, align 8
  %14 = alloca ptr, align 8
  %15 = alloca i8, align 1
  %16 = alloca i8, align 1
  %17 = alloca i8, align 1
  %18 = alloca i8, align 1
  %19 = alloca ptr, align 8
  %20 = alloca ptr, align 8
  %21 = alloca ptr, align 8
  %22 = alloca i32, align 4
  %23 = alloca ptr, align 8
  %24 = alloca i32, align 4
  store ptr %0, ptr %11, align 8, !tbaa !28
  store ptr %1, ptr %12, align 8, !tbaa !123
  store ptr %2, ptr %13, align 8, !tbaa !151
  store ptr %3, ptr %14, align 8, !tbaa !151
  %25 = zext i1 %4 to i8
  store i8 %25, ptr %15, align 1, !tbaa !79
  %26 = zext i1 %5 to i8
  store i8 %26, ptr %16, align 1, !tbaa !79
  %27 = zext i1 %6 to i8
  store i8 %27, ptr %17, align 1, !tbaa !79
  %28 = zext i1 %7 to i8
  store i8 %28, ptr %18, align 1, !tbaa !79
  store ptr %8, ptr %19, align 8, !tbaa !40
  call void @llvm.lifetime.start.p0(i64 8, ptr %20) #3
  %29 = call noalias noundef nonnull ptr @_Znwm(i64 noundef 200) #18
  %30 = load ptr, ptr %11, align 8, !tbaa !28
  %31 = load ptr, ptr %12, align 8, !tbaa !123
  %32 = load ptr, ptr %13, align 8, !tbaa !151
  %33 = load ptr, ptr %14, align 8, !tbaa !151
  %34 = load i8, ptr %15, align 1, !tbaa !79, !range !81, !noundef !82
  %35 = trunc i8 %34 to i1
  %36 = load i8, ptr %16, align 1, !tbaa !79, !range !81, !noundef !82
  %37 = trunc i8 %36 to i1
  %38 = load i8, ptr %17, align 1, !tbaa !79, !range !81, !noundef !82
  %39 = trunc i8 %38 to i1
  %40 = load i8, ptr %18, align 1, !tbaa !79, !range !81, !noundef !82
  %41 = trunc i8 %40 to i1
  %42 = load ptr, ptr %19, align 8, !tbaa !40
  invoke void @_ZN8VariableC1ERKNSt7__cxx1112basic_stringIcSt11char_traitsIcESaIcEEEPK4TypeRKSt6vectorIbSaIbEESF_bbbbPKS_(ptr noundef nonnull align 8 dereferenceable(200) %29, ptr noundef nonnull align 8 dereferenceable(32) %30, ptr noundef %31, ptr noundef nonnull align 8 dereferenceable(40) %32, ptr noundef nonnull align 8 dereferenceable(40) %33, i1 noundef zeroext %35, i1 noundef zeroext %37, i1 noundef zeroext %39, i1 noundef zeroext %41, ptr noundef %42)
          to label %43 unwind label %49

43:                                               ; preds = %9
  store ptr %29, ptr %20, align 8, !tbaa !40
  %44 = load ptr, ptr %12, align 8, !tbaa !123
  %45 = getelementptr inbounds nuw %class.Type, ptr %44, i32 0, i32 0
  %46 = load i32, ptr %45, align 8, !tbaa !97
  %47 = icmp eq i32 %46, 0
  br i1 %47, label %48, label %53

48:                                               ; preds = %43
  br label %53

49:                                               ; preds = %9
  %50 = landingpad { ptr, i32 }
          cleanup
  %51 = extractvalue { ptr, i32 } %50, 0
  store ptr %51, ptr %21, align 8
  %52 = extractvalue { ptr, i32 } %50, 1
  store i32 %52, ptr %22, align 4
  call void @_ZdlPvm(ptr noundef %29, i64 noundef 200) #19
  call void @llvm.lifetime.end.p0(i64 8, ptr %20) #3
  br label %110

53:                                               ; preds = %48, %43
  call void @llvm.lifetime.start.p0(i64 8, ptr %23) #3
  %54 = load ptr, ptr %19, align 8, !tbaa !40
  store ptr %54, ptr %23, align 8, !tbaa !40
  br label %55

55:                                               ; preds = %60, %53
  %56 = load ptr, ptr %23, align 8, !tbaa !40
  %57 = getelementptr inbounds nuw %class.Variable, ptr %56, i32 0, i32 11
  %58 = load ptr, ptr %57, align 8, !tbaa !86
  %59 = icmp ne ptr %58, null
  br i1 %59, label %60, label %64

60:                                               ; preds = %55
  %61 = load ptr, ptr %23, align 8, !tbaa !40
  %62 = getelementptr inbounds nuw %class.Variable, ptr %61, i32 0, i32 11
  %63 = load ptr, ptr %62, align 8, !tbaa !86
  store ptr %63, ptr %23, align 8, !tbaa !40
  br label %55, !llvm.loop !153

64:                                               ; preds = %55
  %65 = load ptr, ptr %23, align 8, !tbaa !40
  %66 = getelementptr inbounds nuw %class.Variable, ptr %65, i32 0, i32 3
  %67 = load ptr, ptr %66, align 8, !tbaa !49
  %68 = getelementptr inbounds nuw %class.Type, ptr %67, i32 0, i32 0
  %69 = load i32, ptr %68, align 8, !tbaa !97
  %70 = icmp eq i32 %69, 2
  br i1 %70, label %71, label %72

71:                                               ; preds = %64
  br label %75

72:                                               ; preds = %64
  %73 = load ptr, ptr %12, align 8, !tbaa !123
  %74 = call noundef ptr @_ZN8Constant11make_randomEPK4Type(ptr noundef %73)
  br label %75

75:                                               ; preds = %72, %71
  %76 = phi ptr [ null, %71 ], [ %74, %72 ]
  %77 = load ptr, ptr %20, align 8, !tbaa !40
  %78 = getelementptr inbounds nuw %class.Variable, ptr %77, i32 0, i32 4
  store ptr %76, ptr %78, align 8, !tbaa !154
  %79 = call noundef i32 @_ZN5Error9get_errorEv()
  %80 = icmp ne i32 %79, 0
  br i1 %80, label %81, label %89

81:                                               ; preds = %75
  %82 = load ptr, ptr %20, align 8, !tbaa !40
  %83 = icmp eq ptr %82, null
  br i1 %83, label %88, label %84

84:                                               ; preds = %81
  %85 = load ptr, ptr %82, align 8, !tbaa !121
  %86 = getelementptr inbounds ptr, ptr %85, i64 1
  %87 = load ptr, ptr %86, align 8
  call void %87(ptr noundef nonnull align 8 dereferenceable(200) %82) #3
  br label %88

88:                                               ; preds = %84, %81
  store ptr null, ptr %10, align 8
  store i32 1, ptr %24, align 4
  br label %108

89:                                               ; preds = %75
  %90 = load ptr, ptr %12, align 8, !tbaa !123
  %91 = call noundef zeroext i1 @_ZNK4Type12is_aggregateEv(ptr noundef nonnull align 8 dereferenceable(136) %90)
  br i1 %91, label %92, label %95

92:                                               ; preds = %89
  %93 = load ptr, ptr %20, align 8, !tbaa !40
  %94 = load ptr, ptr %12, align 8, !tbaa !123
  call void @_ZN8Variable17create_field_varsEPK4Type(ptr noundef nonnull align 8 dereferenceable(200) %93, ptr noundef %94)
  br label %95

95:                                               ; preds = %92, %89
  %96 = call noundef i32 @_ZN5Error9get_errorEv()
  %97 = icmp ne i32 %96, 0
  br i1 %97, label %98, label %106

98:                                               ; preds = %95
  %99 = load ptr, ptr %20, align 8, !tbaa !40
  %100 = icmp eq ptr %99, null
  br i1 %100, label %105, label %101

101:                                              ; preds = %98
  %102 = load ptr, ptr %99, align 8, !tbaa !121
  %103 = getelementptr inbounds ptr, ptr %102, i64 1
  %104 = load ptr, ptr %103, align 8
  call void %104(ptr noundef nonnull align 8 dereferenceable(200) %99) #3
  br label %105

105:                                              ; preds = %101, %98
  store ptr null, ptr %10, align 8
  store i32 1, ptr %24, align 4
  br label %108

106:                                              ; preds = %95
  %107 = load ptr, ptr %20, align 8, !tbaa !40
  store ptr %107, ptr %10, align 8
  store i32 1, ptr %24, align 4
  br label %108

108:                                              ; preds = %106, %105, %88
  call void @llvm.lifetime.end.p0(i64 8, ptr %23) #3
  call void @llvm.lifetime.end.p0(i64 8, ptr %20) #3
  %109 = load ptr, ptr %10, align 8
  ret ptr %109

110:                                              ; preds = %49
  %111 = load ptr, ptr %21, align 8
  %112 = load i32, ptr %22, align 4
  %113 = insertvalue { ptr, i32 } poison, ptr %111, 0
  %114 = insertvalue { ptr, i32 } %113, i32 %112, 1
  resume { ptr, i32 } %114
}