; Function Attrs: mustprogress uwtable
define dso_local noundef ptr @_ZN8Variable14CreateVariableERKNSt7__cxx1112basic_stringIcSt11char_traitsIcESaIcEEEPK4TypeRKSt6vectorIbSaIbEESF_bbbbPKS_(ptr noundef nonnull readonly align 8 captures(none) dereferenceable(32) %0, ptr noundef %1, ptr noundef nonnull align 8 dereferenceable(40) %2, ptr noundef nonnull align 8 dereferenceable(40) %3, i1 noundef zeroext %4, i1 noundef zeroext %5, i1 noundef zeroext %6, i1 noundef zeroext %7, ptr noundef %8) local_unnamed_addr #5 align 2 personality ptr @__gxx_personality_v0 {
  %10 = tail call noalias noundef nonnull dereferenceable(200) ptr @_Znwm(i64 noundef 200) #24
  invoke void @_ZN8VariableC2ERKNSt7__cxx1112basic_stringIcSt11char_traitsIcESaIcEEEPK4TypeRKSt6vectorIbSaIbEESF_bbbbPKS_(ptr noundef nonnull align 8 dereferenceable(200) %10, ptr noundef nonnull align 8 dereferenceable(32) %0, ptr noundef %1, ptr noundef nonnull align 8 dereferenceable(40) %2, ptr noundef nonnull align 8 dereferenceable(40) %3, i1 noundef zeroext %4, i1 noundef zeroext %5, i1 noundef zeroext %6, i1 noundef zeroext %7, ptr noundef %8)
          to label %.preheader unwind label %11

11:                                               ; preds = %9
  %12 = landingpad { ptr, i32 }
          cleanup
  tail call void @_ZdlPvm(ptr noundef nonnull %10, i64 noundef 200) #23
  resume { ptr, i32 } %12

.preheader:                                       ; preds = %9, %.preheader
  %.0 = phi ptr [ %14, %.preheader ], [ %8, %9 ]
  %13 = getelementptr inbounds nuw i8, ptr %.0, i64 88
  %14 = load ptr, ptr %13, align 8, !tbaa !80
  %.not = icmp eq ptr %14, null
  br i1 %.not, label %15, label %.preheader, !llvm.loop !136

15:                                               ; preds = %.preheader
  %16 = getelementptr inbounds nuw i8, ptr %.0, i64 64
  %17 = load ptr, ptr %16, align 8, !tbaa !39
  %18 = load i32, ptr %17, align 8, !tbaa !57
  %19 = icmp eq i32 %18, 2
  br i1 %19, label %22, label %20

20:                                               ; preds = %15
  %21 = tail call noundef ptr @_ZN8Constant11make_randomEPK4Type(ptr noundef %1)
  br label %22

22:                                               ; preds = %15, %20
  %23 = phi ptr [ %21, %20 ], [ null, %15 ]
  %24 = getelementptr inbounds nuw i8, ptr %10, i64 72
  store ptr %23, ptr %24, align 8, !tbaa !137
  %25 = load i32, ptr @_ZN5Error8r_error_E, align 4, !tbaa !138
  %.not26 = icmp eq i32 %25, 0
  br i1 %.not26, label %26, label %.thread.sink.split

26:                                               ; preds = %22
  %27 = load i32, ptr %1, align 8, !tbaa !57
  %28 = and i32 %27, -2
  %spec.select.i = icmp eq i32 %28, 2
  br i1 %spec.select.i, label %29, label %.thread

29:                                               ; preds = %26
  tail call void @_ZN8Variable17create_field_varsEPK4Type(ptr noundef nonnull align 8 dereferenceable(200) %10, ptr noundef nonnull %1)
  %.pre = load i32, ptr @_ZN5Error8r_error_E, align 4, !tbaa !138
  %30 = icmp eq i32 %.pre, 0
  br i1 %30, label %.thread, label %.thread.sink.split

.thread.sink.split:                               ; preds = %29, %22
  %31 = load ptr, ptr %10, align 8, !tbaa !97
  %32 = getelementptr inbounds nuw i8, ptr %31, i64 8
  %33 = load ptr, ptr %32, align 8
  tail call void %33(ptr noundef nonnull align 8 dereferenceable(200) %10) #25
  br label %.thread

.thread:                                          ; preds = %.thread.sink.split, %26, %29
  %.024 = phi ptr [ %10, %29 ], [ %10, %26 ], [ null, %.thread.sink.split ]
  ret ptr %.024
}